; ModuleID = '60/1692.c'
source_filename = "60/1692.c"
target datalayout = "e-m:e-p270:32:32-p271:32:32-p272:64:64-i64:64-f80:128-n8:16:32:64-S128"
target triple = "x86_64-pc-linux-gnu"

@.str = private unnamed_addr constant [3 x i8] c"%d\00", align 1
@.str.1 = private unnamed_addr constant [7 x i8] c"%d %d\0A\00", align 1
@.str.2 = private unnamed_addr constant [6 x i8] c"empty\00", align 1

; Function Attrs: noinline nounwind uwtable
define dso_local i32 @main() #0 {
  %1 = alloca i32, align 4
  %2 = alloca i32, align 4
  %3 = alloca i32, align 4
  %4 = alloca i32, align 4
  %5 = alloca i32, align 4
  %6 = alloca i32, align 4
  %7 = alloca i32, align 4
  %8 = alloca i32, align 4
  %9 = alloca i32, align 4
  store i32 0, i32* %1, align 4
  store i32 0, i32* %6, align 4
  store i32 0, i32* %7, align 4
  store i32 0, i32* %8, align 4
  store i32 0, i32* %9, align 4
  %10 = call i32 (i8*, ...) @__isoc99_scanf(i8* getelementptr inbounds ([3 x i8], [3 x i8]* @.str, i64 0, i64 0), i32* %2)
  store i32 3, i32* %3, align 4
  br label %11

11:                                               ; preds = %85, %0
  %12 = load i32, i32* %3, align 4
  %13 = load i32, i32* %2, align 4
  %14 = icmp sle i32 %12, %13
  br i1 %14, label %15, label %88

15:                                               ; preds = %11
  store i32 3, i32* %5, align 4
  br label %16

16:                                               ; preds = %35, %15
  %17 = load i32, i32* %5, align 4
  %18 = load i32, i32* %3, align 4
  %19 = icmp slt i32 %17, %18
  br i1 %19, label %20, label %38

20:                                               ; preds = %16
  %21 = load i32, i32* %3, align 4
  %22 = load i32, i32* %5, align 4
  %23 = srem i32 %21, %22
  %24 = icmp eq i32 %23, 0
  br i1 %24, label %25, label %26

25:                                               ; preds = %20
  store i32 0, i32* %6, align 4
  br label %38

26:                                               ; preds = %20
  %27 = load i32, i32* %3, align 4
  %28 = load i32, i32* %5, align 4
  %29 = srem i32 %27, %28
  %30 = icmp ne i32 %29, 0
  br i1 %30, label %31, label %34

31:                                               ; preds = %26
  %32 = load i32, i32* %6, align 4
  %33 = add nsw i32 %32, 1
  store i32 %33, i32* %6, align 4
  br label %34

34:                                               ; preds = %31, %26
  br label %35

35:                                               ; preds = %34
  %36 = load i32, i32* %5, align 4
  %37 = add nsw i32 %36, 1
  store i32 %37, i32* %5, align 4
  br label %16

38:                                               ; preds = %25, %16
  %39 = load i32, i32* %6, align 4
  %40 = load i32, i32* %3, align 4
  %41 = sub nsw i32 %40, 3
  %42 = icmp eq i32 %39, %41
  br i1 %42, label %43, label %85

43:                                               ; preds = %38
  store i32 1, i32* %8, align 4
  store i32 3, i32* %4, align 4
  br label %44

44:                                               ; preds = %66, %43
  %45 = load i32, i32* %4, align 4
  %46 = load i32, i32* %3, align 4
  %47 = add nsw i32 %46, 2
  %48 = icmp slt i32 %45, %47
  br i1 %48, label %49, label %69

49:                                               ; preds = %44
  %50 = load i32, i32* %3, align 4
  %51 = add nsw i32 %50, 2
  %52 = load i32, i32* %4, align 4
  %53 = srem i32 %51, %52
  %54 = icmp eq i32 %53, 0
  br i1 %54, label %55, label %56

55:                                               ; preds = %49
  store i32 0, i32* %7, align 4
  br label %69

56:                                               ; preds = %49
  %57 = load i32, i32* %3, align 4
  %58 = add nsw i32 %57, 2
  %59 = load i32, i32* %4, align 4
  %60 = srem i32 %58, %59
  %61 = icmp ne i32 %60, 0
  br i1 %61, label %62, label %65

62:                                               ; preds = %56
  %63 = load i32, i32* %7, align 4
  %64 = add nsw i32 %63, 1
  store i32 %64, i32* %7, align 4
  br label %65

65:                                               ; preds = %62, %56
  br label %66

66:                                               ; preds = %65
  %67 = load i32, i32* %4, align 4
  %68 = add nsw i32 %67, 1
  store i32 %68, i32* %4, align 4
  br label %44

69:                                               ; preds = %55, %44
  %70 = load i32, i32* %7, align 4
  %71 = load i32, i32* %3, align 4
  %72 = sub nsw i32 %71, 1
  %73 = icmp eq i32 %70, %72
  br i1 %73, label %74, label %84

74:                                               ; preds = %69
  %75 = load i32, i32* %3, align 4
  %76 = add nsw i32 %75, 2
  %77 = load i32, i32* %2, align 4
  %78 = icmp sle i32 %76, %77
  br i1 %78, label %79, label %84

79:                                               ; preds = %74
  store i32 1, i32* %9, align 4
  %80 = load i32, i32* %3, align 4
  %81 = load i32, i32* %3, align 4
  %82 = add nsw i32 %81, 2
  %83 = call i32 (i8*, ...) @printf(i8* getelementptr inbounds ([7 x i8], [7 x i8]* @.str.1, i64 0, i64 0), i32 %80, i32 %82)
  br label %84

84:                                               ; preds = %79, %74, %69
  br label %85

85:                                               ; preds = %84, %38
  store i32 0, i32* %6, align 4
  store i32 0, i32* %7, align 4
  %86 = load i32, i32* %3, align 4
  %87 = add nsw i32 %86, 2
  store i32 %87, i32* %3, align 4
  br label %11

88:                                               ; preds = %11
  %89 = load i32, i32* %8, align 4
  %90 = icmp eq i32 %89, 0
  br i1 %90, label %94, label %91

91:                                               ; preds = %88
  %92 = load i32, i32* %9, align 4
  %93 = icmp eq i32 %92, 0
  br i1 %93, label %94, label %96

94:                                               ; preds = %91, %88
  %95 = call i32 (i8*, ...) @printf(i8* getelementptr inbounds ([6 x i8], [6 x i8]* @.str.2, i64 0, i64 0))
  br label %96

96:                                               ; preds = %94, %91
  ret i32 0
}

declare dso_local i32 @__isoc99_scanf(i8*, ...) #1

declare dso_local i32 @printf(i8*, ...) #1


!llvm.module.flags = !{!0}
!llvm.ident = !{!1}

!0 = !{i32 1, !"wchar_size", i32 4}
!1 = !{!"clang version 10.0.0-4ubuntu1 "}
