; ModuleID = 'source-C-CXX/59/1692.c'
source_filename = "source-C-CXX/59/1692.c"
target datalayout = "e-m:e-p270:32:32-p271:32:32-p272:64:64-i64:64-f80:128-n8:16:32:64-S128"
target triple = "x86_64-pc-linux-gnu"

@.str = private unnamed_addr constant [3 x i8] c"%d\00", align 1
@.str.1 = private unnamed_addr constant [7 x i8] c"%d %d\0A\00", align 1
@.str.2 = private unnamed_addr constant [6 x i8] c"empty\00", align 1

; Function Attrs: nofree nounwind sspstrong uwtable
define dso_local i32 @main() local_unnamed_addr #0 {
  %1 = alloca i32, align 4
  %2 = bitcast i32* %1 to i8*
  call void @llvm.lifetime.start.p0i8(i64 4, i8* nonnull %2) #3
  %3 = call i32 (i8*, ...) @__isoc99_scanf(i8* getelementptr inbounds ([3 x i8], [3 x i8]* @.str, i64 0, i64 0), i32* nonnull %1)
  %4 = load i32, i32* %1, align 4, !tbaa !5
  %5 = icmp slt i32 %4, 3
  br i1 %5, label %57, label %6

6:                                                ; preds = %0, %45
  %7 = phi i32 [ %46, %45 ], [ %4, %0 ]
  %8 = phi i32 [ %52, %45 ], [ 5, %0 ]
  %9 = phi i32 [ %51, %45 ], [ 2, %0 ]
  %10 = phi i32 [ %50, %45 ], [ 0, %0 ]
  %11 = phi i32 [ %48, %45 ], [ 0, %0 ]
  %12 = phi i32 [ %47, %45 ], [ 0, %0 ]
  %13 = phi i32 [ %27, %45 ], [ 3, %0 ]
  %14 = icmp ugt i32 %13, 3
  br i1 %14, label %15, label %23

15:                                               ; preds = %6, %60
  %16 = phi i32 [ %61, %60 ], [ 3, %6 ]
  %17 = urem i32 %13, %16
  %18 = icmp eq i32 %17, 0
  br i1 %18, label %23, label %19

19:                                               ; preds = %15
  %20 = add nuw nsw i32 %16, 1
  %21 = urem i32 %13, %20
  %22 = icmp eq i32 %21, 0
  br i1 %22, label %23, label %60

23:                                               ; preds = %15, %19, %60, %6
  %24 = phi i32 [ 0, %6 ], [ 0, %15 ], [ 0, %19 ], [ %10, %60 ]
  %25 = add nsw i32 %13, -3
  %26 = icmp eq i32 %24, %25
  %27 = add nuw nsw i32 %13, 2
  br i1 %26, label %28, label %45

28:                                               ; preds = %23, %63
  %29 = phi i32 [ %64, %63 ], [ 3, %23 ]
  %30 = urem i32 %27, %29
  %31 = icmp eq i32 %30, 0
  br i1 %31, label %36, label %32

32:                                               ; preds = %28
  %33 = add nuw i32 %29, 1
  %34 = urem i32 %27, %33
  %35 = icmp eq i32 %34, 0
  br i1 %35, label %36, label %63

36:                                               ; preds = %63, %32, %28
  %37 = phi i32 [ 0, %28 ], [ 0, %32 ], [ %9, %63 ]
  %38 = add nsw i32 %13, -1
  %39 = icmp ne i32 %37, %38
  %40 = icmp sgt i32 %27, %7
  %41 = select i1 %39, i1 true, i1 %40
  br i1 %41, label %45, label %42

42:                                               ; preds = %36
  %43 = call i32 (i8*, ...) @printf(i8* nonnull dereferenceable(1) getelementptr inbounds ([7 x i8], [7 x i8]* @.str.1, i64 0, i64 0), i32 %13, i32 %27)
  %44 = load i32, i32* %1, align 4, !tbaa !5
  br label %45

45:                                               ; preds = %23, %36, %42
  %46 = phi i32 [ %7, %36 ], [ %44, %42 ], [ %7, %23 ]
  %47 = phi i32 [ 1, %36 ], [ 1, %42 ], [ %12, %23 ]
  %48 = phi i32 [ %11, %36 ], [ 1, %42 ], [ %11, %23 ]
  %49 = icmp sgt i32 %27, %46
  %50 = add nuw nsw i32 %10, 2
  %51 = add nuw i32 %9, 2
  %52 = add i32 %8, 2
  br i1 %49, label %53, label %6, !llvm.loop !9

53:                                               ; preds = %45
  %54 = icmp eq i32 %47, 0
  %55 = icmp eq i32 %48, 0
  %56 = select i1 %54, i1 true, i1 %55
  br i1 %56, label %57, label %59

57:                                               ; preds = %0, %53
  %58 = call i32 (i8*, ...) @printf(i8* nonnull dereferenceable(1) getelementptr inbounds ([6 x i8], [6 x i8]* @.str.2, i64 0, i64 0))
  br label %59

59:                                               ; preds = %53, %57
  call void @llvm.lifetime.end.p0i8(i64 4, i8* nonnull %2) #3
  ret i32 0

60:                                               ; preds = %19
  %61 = add nuw nsw i32 %16, 2
  %62 = icmp eq i32 %61, %13
  br i1 %62, label %23, label %15, !llvm.loop !11

63:                                               ; preds = %32
  %64 = add nuw i32 %29, 2
  %65 = icmp eq i32 %64, %8
  br i1 %65, label %36, label %28, !llvm.loop !12
}

; Function Attrs: argmemonly mustprogress nofree nosync nounwind willreturn
declare void @llvm.lifetime.start.p0i8(i64 immarg, i8* nocapture) #1

; Function Attrs: nofree nounwind
declare noundef i32 @__isoc99_scanf(i8* nocapture noundef readonly, ...) local_unnamed_addr #2

; Function Attrs: nofree nounwind
declare noundef i32 @printf(i8* nocapture noundef readonly, ...) local_unnamed_addr #2

; Function Attrs: argmemonly mustprogress nofree nosync nounwind willreturn
declare void @llvm.lifetime.end.p0i8(i64 immarg, i8* nocapture) #1


!llvm.module.flags = !{!0, !1, !2, !3}
!llvm.ident = !{!4}

!0 = !{i32 1, !"wchar_size", i32 4}
!1 = !{i32 7, !"PIC Level", i32 2}
!2 = !{i32 7, !"PIE Level", i32 2}
!3 = !{i32 7, !"uwtable", i32 1}
!4 = !{!"clang version 13.0.0"}
!5 = !{!6, !6, i64 0}
!6 = !{!"int", !7, i64 0}
!7 = !{!"omnipotent char", !8, i64 0}
!8 = !{!"Simple C/C++ TBAA"}
!9 = distinct !{!9, !10}
!10 = !{!"llvm.loop.mustprogress"}
!11 = distinct !{!11, !10}
!12 = distinct !{!12, !10}
